target datalayout = "e-m:e-p270:32:32-p271:32:32-p272:64:64-i64:64-i128:128-f80:128-n8:16:32:64-S128"
target triple = "x86_64-pc-linux-gnu"

%struct.AVRational = type { i32, i32 }
%struct.AVFormatContext = type { ptr, ptr, ptr, ptr, ptr, i32, i32, ptr, i32, ptr, i32, ptr, ptr, i64, i64, i64, i32, i32, i32, i64, i64, ptr, i32, i32, ptr, i32, i32, i32, i32, ptr, i64, i32, i32, %struct.AVIOInterruptCB, i32, i32, i32, i32, i64, i32, i32, i32, i32, i32, i32, i32, i32, i32, i32, i32, i32, i64, i32, i32, i32, i32, i32, ptr, ptr, ptr, ptr, i32, ptr, ptr, ptr, ptr, i32, ptr, ptr, i64, ptr, ptr, ptr, i64 }
%struct.AVIOInterruptCB = type { ptr, ptr }
%struct.AVIContext = type { ptr, ptr, i64, i64, i64, i64, i32, i32, i32, i32, i32 }
%struct.AVStream = type { ptr, i32, i32, ptr, ptr, %struct.AVRational, i64, i64, i64, i32, i32, %struct.AVRational, ptr, %struct.AVRational, %struct.AVPacket, i32, %struct.AVRational, i32 }
%struct.AVPacket = type { ptr, i64, i64, ptr, i32, i32, i32, ptr, i32, i64, i64, ptr, ptr, %struct.AVRational }
%struct.AVCodecParameters = type { i32, i32, i32, ptr, i32, ptr, i32, i32, i64, i32, i32, i32, i32, i32, i32, %struct.AVRational, %struct.AVRational, i32, i32, i32, i32, i32, i32, i32, %struct.AVChannelLayout, i32, i32, i32, i32, i32, i32 }
%struct.AVChannelLayout = type { i32, i32, %union.anon.0, ptr }
%union.anon.0 = type { i64 }
%struct.AVIOContext = type { ptr, ptr, i32, ptr, ptr, ptr, ptr, ptr, ptr, i64, i32, i32, i32, i32, i32, i64, ptr, ptr, ptr, ptr, i32, i32, ptr, ptr, ptr, i32, ptr, i64, i64 }
%struct.AVIStream = type { i64, i64, i32, i32, i32, i32, i64, %struct.AVIIndex, i64, [256 x i32], [256 x i32], i64 }
%struct.AVIIndex = type { i64, i64, i32, i32, i32, ptr }
%struct.AVIIentry = type { [4 x i8], i32, i32, i32 }

@.str.49 = private unnamed_addr constant [5 x i8] c"idx1\00", align 1

; Function Attrs: nounwind uwtable
define internal ptr @avi_stream2fourcc(ptr noundef %0, i32 noundef %1, i32 noundef %2) #0 {
  %4 = alloca ptr, align 8
  %5 = alloca i32, align 4
  %6 = alloca i32, align 4
  store ptr %0, ptr %4, align 8, !tbaa !94
  store i32 %1, ptr %5, align 4, !tbaa !43
  store i32 %2, ptr %6, align 4, !tbaa !43
  %7 = load i32, ptr %5, align 4, !tbaa !43
  %8 = sdiv i32 %7, 10
  %9 = add nsw i32 48, %8
  %10 = trunc i32 %9 to i8
  %11 = load ptr, ptr %4, align 8, !tbaa !94
  %12 = getelementptr inbounds i8, ptr %11, i64 0
  store i8 %10, ptr %12, align 1, !tbaa !108
  %13 = load i32, ptr %5, align 4, !tbaa !43
  %14 = srem i32 %13, 10
  %15 = add nsw i32 48, %14
  %16 = trunc i32 %15 to i8
  %17 = load ptr, ptr %4, align 8, !tbaa !94
  %18 = getelementptr inbounds i8, ptr %17, i64 1
  store i8 %16, ptr %18, align 1, !tbaa !108
  %19 = load i32, ptr %6, align 4, !tbaa !43
  %20 = icmp eq i32 %19, 0
  br i1 %20, label %21, label %26

21:                                               ; preds = %3
  %22 = load ptr, ptr %4, align 8, !tbaa !94
  %23 = getelementptr inbounds i8, ptr %22, i64 2
  store i8 100, ptr %23, align 1, !tbaa !108
  %24 = load ptr, ptr %4, align 8, !tbaa !94
  %25 = getelementptr inbounds i8, ptr %24, i64 3
  store i8 99, ptr %25, align 1, !tbaa !108
  br label %40

26:                                               ; preds = %3
  %27 = load i32, ptr %6, align 4, !tbaa !43
  %28 = icmp eq i32 %27, 3
  br i1 %28, label %29, label %34

29:                                               ; preds = %26
  %30 = load ptr, ptr %4, align 8, !tbaa !94
  %31 = getelementptr inbounds i8, ptr %30, i64 2
  store i8 115, ptr %31, align 1, !tbaa !108
  %32 = load ptr, ptr %4, align 8, !tbaa !94
  %33 = getelementptr inbounds i8, ptr %32, i64 3
  store i8 98, ptr %33, align 1, !tbaa !108
  br label %39

34:                                               ; preds = %26
  %35 = load ptr, ptr %4, align 8, !tbaa !94
  %36 = getelementptr inbounds i8, ptr %35, i64 2
  store i8 119, ptr %36, align 1, !tbaa !108
  %37 = load ptr, ptr %4, align 8, !tbaa !94
  %38 = getelementptr inbounds i8, ptr %37, i64 3
  store i8 98, ptr %38, align 1, !tbaa !108
  br label %39

39:                                               ; preds = %34, %29
  br label %40

40:                                               ; preds = %39, %21
  %41 = load ptr, ptr %4, align 8, !tbaa !94
  %42 = getelementptr inbounds i8, ptr %41, i64 4
  store i8 0, ptr %42, align 1, !tbaa !108
  %43 = load ptr, ptr %4, align 8, !tbaa !94
  ret ptr %43
}

; Function Attrs: alwaysinline nounwind uwtable
define internal void @ffio_wfourcc(ptr noundef %0, ptr noundef %1) #4 {
  %3 = alloca ptr, align 8
  %4 = alloca ptr, align 8
  store ptr %0, ptr %3, align 8, !tbaa !29
  store ptr %1, ptr %4, align 8, !tbaa !94
  %5 = load ptr, ptr %3, align 8, !tbaa !29
  %6 = load ptr, ptr %4, align 8, !tbaa !94
  %7 = getelementptr inbounds i8, ptr %6, i64 0
  %8 = load i8, ptr %7, align 1, !tbaa !108
  %9 = zext i8 %8 to i32
  %10 = load ptr, ptr %4, align 8, !tbaa !94
  %11 = getelementptr inbounds i8, ptr %10, i64 1
  %12 = load i8, ptr %11, align 1, !tbaa !108
  %13 = zext i8 %12 to i32
  %14 = shl i32 %13, 8
  %15 = or i32 %9, %14
  %16 = load ptr, ptr %4, align 8, !tbaa !94
  %17 = getelementptr inbounds i8, ptr %16, i64 2
  %18 = load i8, ptr %17, align 1, !tbaa !108
  %19 = zext i8 %18 to i32
  %20 = shl i32 %19, 16
  %21 = or i32 %15, %20
  %22 = load ptr, ptr %4, align 8, !tbaa !94
  %23 = getelementptr inbounds i8, ptr %22, i64 3
  %24 = load i8, ptr %23, align 1, !tbaa !108
  %25 = zext i8 %24 to i32
  %26 = shl i32 %25, 24
  %27 = or i32 %21, %26
  call void @avio_wl32(ptr noundef %5, i32 noundef %27)
  ret void
}

; Function Attrs: inlinehint nounwind uwtable
define internal ptr @avi_get_ientry(ptr noundef %0, i32 noundef %1) #7 {
  %3 = alloca ptr, align 8
  %4 = alloca i32, align 4
  %5 = alloca i32, align 4
  %6 = alloca i32, align 4
  store ptr %0, ptr %3, align 8, !tbaa !132
  store i32 %1, ptr %4, align 4, !tbaa !43
  call void @llvm.lifetime.start.p0(i64 4, ptr %5) #12
  %7 = load i32, ptr %4, align 4, !tbaa !43
  %8 = sdiv i32 %7, 16384
  store i32 %8, ptr %5, align 4, !tbaa !43
  call void @llvm.lifetime.start.p0(i64 4, ptr %6) #12
  %9 = load i32, ptr %4, align 4, !tbaa !43
  %10 = srem i32 %9, 16384
  store i32 %10, ptr %6, align 4, !tbaa !43
  %11 = load ptr, ptr %3, align 8, !tbaa !132
  %12 = getelementptr inbounds nuw %struct.AVIIndex, ptr %11, i32 0, i32 5
  %13 = load ptr, ptr %12, align 8, !tbaa !136
  %14 = load i32, ptr %5, align 4, !tbaa !43
  %15 = sext i32 %14 to i64
  %16 = getelementptr inbounds ptr, ptr %13, i64 %15
  %17 = load ptr, ptr %16, align 8, !tbaa !137
  %18 = load i32, ptr %6, align 4, !tbaa !43
  %19 = sext i32 %18 to i64
  %20 = getelementptr inbounds %struct.AVIIentry, ptr %17, i64 %19
  call void @llvm.lifetime.end.p0(i64 4, ptr %6) #12
  call void @llvm.lifetime.end.p0(i64 4, ptr %5) #12
  ret ptr %20
}

; Function Attrs: nounwind uwtable
define internal i32 @avi_write_idx1(ptr noundef %0) #0 {
  %2 = alloca ptr, align 8
  %3 = alloca ptr, align 8
  %4 = alloca ptr, align 8
  %5 = alloca i64, align 8
  %6 = alloca i32, align 4
  %7 = alloca [5 x i8], align 1
  %8 = alloca ptr, align 8
  %9 = alloca ptr, align 8
  %10 = alloca ptr, align 8
  %11 = alloca i32, align 4
  %12 = alloca i32, align 4
  store ptr %0, ptr %2, align 8, !tbaa !4
  call void @llvm.lifetime.start.p0(i64 8, ptr %3) #12
  %13 = load ptr, ptr %2, align 8, !tbaa !4
  %14 = getelementptr inbounds nuw %struct.AVFormatContext, ptr %13, i32 0, i32 4
  %15 = load ptr, ptr %14, align 8, !tbaa !28
  store ptr %15, ptr %3, align 8, !tbaa !29
  call void @llvm.lifetime.start.p0(i64 8, ptr %4) #12
  %16 = load ptr, ptr %2, align 8, !tbaa !4
  %17 = getelementptr inbounds nuw %struct.AVFormatContext, ptr %16, i32 0, i32 3
  %18 = load ptr, ptr %17, align 8, !tbaa !9
  store ptr %18, ptr %4, align 8, !tbaa !26
  call void @llvm.lifetime.start.p0(i64 8, ptr %5) #12
  call void @llvm.lifetime.start.p0(i64 4, ptr %6) #12
  call void @llvm.lifetime.start.p0(i64 5, ptr %7) #12
  %19 = load ptr, ptr %3, align 8, !tbaa !29
  %20 = getelementptr inbounds nuw %struct.AVIOContext, ptr %19, i32 0, i32 20
  %21 = load i32, ptr %20, align 8, !tbaa !72
  %22 = and i32 %21, 1
  %23 = icmp ne i32 %22, 0
  br i1 %23, label %24, label %169

24:                                               ; preds = %1
  call void @llvm.lifetime.start.p0(i64 8, ptr %8) #12
  call void @llvm.lifetime.start.p0(i64 8, ptr %9) #12
  store ptr null, ptr %9, align 8, !tbaa !137
  call void @llvm.lifetime.start.p0(i64 8, ptr %10) #12
  call void @llvm.lifetime.start.p0(i64 4, ptr %11) #12
  call void @llvm.lifetime.start.p0(i64 4, ptr %12) #12
  store i32 -1, ptr %12, align 4, !tbaa !43
  %25 = load ptr, ptr %3, align 8, !tbaa !29
  %26 = call i64 @ff_start_tag(ptr noundef %25, ptr noundef @.str.49)
  store i64 %26, ptr %5, align 8, !tbaa !30
  store i32 0, ptr %6, align 4, !tbaa !43
  br label %27

27:                                               ; preds = %45, %24
  %28 = load i32, ptr %6, align 4, !tbaa !43
  %29 = load ptr, ptr %2, align 8, !tbaa !4
  %30 = getelementptr inbounds nuw %struct.AVFormatContext, ptr %29, i32 0, i32 6
  %31 = load i32, ptr %30, align 4, !tbaa !35
  %32 = icmp ult i32 %28, %31
  br i1 %32, label %33, label %48

33:                                               ; preds = %27
  %34 = load ptr, ptr %2, align 8, !tbaa !4
  %35 = getelementptr inbounds nuw %struct.AVFormatContext, ptr %34, i32 0, i32 7
  %36 = load ptr, ptr %35, align 8, !tbaa !44
  %37 = load i32, ptr %6, align 4, !tbaa !43
  %38 = sext i32 %37 to i64
  %39 = getelementptr inbounds ptr, ptr %36, i64 %38
  %40 = load ptr, ptr %39, align 8, !tbaa !31
  %41 = getelementptr inbounds nuw %struct.AVStream, ptr %40, i32 0, i32 4
  %42 = load ptr, ptr %41, align 8, !tbaa !45
  store ptr %42, ptr %8, align 8, !tbaa !77
  %43 = load ptr, ptr %8, align 8, !tbaa !77
  %44 = getelementptr inbounds nuw %struct.AVIStream, ptr %43, i32 0, i32 3
  store i32 0, ptr %44, align 4, !tbaa !147
  br label %45

45:                                               ; preds = %33
  %46 = load i32, ptr %6, align 4, !tbaa !43
  %47 = add nsw i32 %46, 1
  store i32 %47, ptr %6, align 4, !tbaa !43
  br label %27, !llvm.loop !148

48:                                               ; preds = %27
  br label %49

49:                                               ; preds = %157, %48
  store i32 1, ptr %11, align 4, !tbaa !43
  store i32 0, ptr %6, align 4, !tbaa !43
  br label %50

50:                                               ; preds = %96, %49
  %51 = load i32, ptr %6, align 4, !tbaa !43
  %52 = load ptr, ptr %2, align 8, !tbaa !4
  %53 = getelementptr inbounds nuw %struct.AVFormatContext, ptr %52, i32 0, i32 6
  %54 = load i32, ptr %53, align 4, !tbaa !35
  %55 = icmp ult i32 %51, %54
  br i1 %55, label %56, label %99

56:                                               ; preds = %50
  %57 = load ptr, ptr %2, align 8, !tbaa !4
  %58 = getelementptr inbounds nuw %struct.AVFormatContext, ptr %57, i32 0, i32 7
  %59 = load ptr, ptr %58, align 8, !tbaa !44
  %60 = load i32, ptr %6, align 4, !tbaa !43
  %61 = sext i32 %60 to i64
  %62 = getelementptr inbounds ptr, ptr %59, i64 %61
  %63 = load ptr, ptr %62, align 8, !tbaa !31
  %64 = getelementptr inbounds nuw %struct.AVStream, ptr %63, i32 0, i32 4
  %65 = load ptr, ptr %64, align 8, !tbaa !45
  store ptr %65, ptr %8, align 8, !tbaa !77
  %66 = load ptr, ptr %8, align 8, !tbaa !77
  %67 = getelementptr inbounds nuw %struct.AVIStream, ptr %66, i32 0, i32 7
  %68 = getelementptr inbounds nuw %struct.AVIIndex, ptr %67, i32 0, i32 2
  %69 = load i32, ptr %68, align 8, !tbaa !120
  %70 = load ptr, ptr %8, align 8, !tbaa !77
  %71 = getelementptr inbounds nuw %struct.AVIStream, ptr %70, i32 0, i32 3
  %72 = load i32, ptr %71, align 4, !tbaa !147
  %73 = icmp sle i32 %69, %72
  br i1 %73, label %74, label %75

74:                                               ; preds = %56
  br label %96

75:                                               ; preds = %56
  %76 = load ptr, ptr %8, align 8, !tbaa !77
  %77 = getelementptr inbounds nuw %struct.AVIStream, ptr %76, i32 0, i32 7
  %78 = load ptr, ptr %8, align 8, !tbaa !77
  %79 = getelementptr inbounds nuw %struct.AVIStream, ptr %78, i32 0, i32 3
  %80 = load i32, ptr %79, align 4, !tbaa !147
  %81 = call ptr @avi_get_ientry(ptr noundef %77, i32 noundef %80)
  store ptr %81, ptr %10, align 8, !tbaa !137
  %82 = load i32, ptr %11, align 4, !tbaa !43
  %83 = icmp ne i32 %82, 0
  br i1 %83, label %92, label %84

84:                                               ; preds = %75
  %85 = load ptr, ptr %10, align 8, !tbaa !137
  %86 = getelementptr inbounds nuw %struct.AVIIentry, ptr %85, i32 0, i32 2
  %87 = load i32, ptr %86, align 4, !tbaa !141
  %88 = load ptr, ptr %9, align 8, !tbaa !137
  %89 = getelementptr inbounds nuw %struct.AVIIentry, ptr %88, i32 0, i32 2
  %90 = load i32, ptr %89, align 4, !tbaa !141
  %91 = icmp ult i32 %87, %90
  br i1 %91, label %92, label %95

92:                                               ; preds = %84, %75
  %93 = load ptr, ptr %10, align 8, !tbaa !137
  store ptr %93, ptr %9, align 8, !tbaa !137
  %94 = load i32, ptr %6, align 4, !tbaa !43
  store i32 %94, ptr %12, align 4, !tbaa !43
  br label %95

95:                                               ; preds = %92, %84
  store i32 0, ptr %11, align 4, !tbaa !43
  br label %96

96:                                               ; preds = %95, %74
  %97 = load i32, ptr %6, align 4, !tbaa !43
  %98 = add nsw i32 %97, 1
  store i32 %98, ptr %6, align 4, !tbaa !43
  br label %50, !llvm.loop !149

99:                                               ; preds = %50
  %100 = load i32, ptr %11, align 4, !tbaa !43
  %101 = icmp ne i32 %100, 0
  br i1 %101, label %156, label %102

102:                                              ; preds = %99
  %103 = load ptr, ptr %2, align 8, !tbaa !4
  %104 = getelementptr inbounds nuw %struct.AVFormatContext, ptr %103, i32 0, i32 7
  %105 = load ptr, ptr %104, align 8, !tbaa !44
  %106 = load i32, ptr %12, align 4, !tbaa !43
  %107 = sext i32 %106 to i64
  %108 = getelementptr inbounds ptr, ptr %105, i64 %107
  %109 = load ptr, ptr %108, align 8, !tbaa !31
  %110 = getelementptr inbounds nuw %struct.AVStream, ptr %109, i32 0, i32 4
  %111 = load ptr, ptr %110, align 8, !tbaa !45
  store ptr %111, ptr %8, align 8, !tbaa !77
  %112 = load ptr, ptr %9, align 8, !tbaa !137
  %113 = getelementptr inbounds nuw %struct.AVIIentry, ptr %112, i32 0, i32 0
  %114 = getelementptr inbounds [4 x i8], ptr %113, i64 0, i64 0
  %115 = load i8, ptr %114, align 4, !tbaa !108
  %116 = icmp ne i8 %115, 0
  br i1 %116, label %117, label %122

117:                                              ; preds = %102
  %118 = load ptr, ptr %3, align 8, !tbaa !29
  %119 = load ptr, ptr %9, align 8, !tbaa !137
  %120 = getelementptr inbounds nuw %struct.AVIIentry, ptr %119, i32 0, i32 0
  %121 = getelementptr inbounds [4 x i8], ptr %120, i64 0, i64 0
  call void @ffio_wfourcc(ptr noundef %118, ptr noundef %121)
  br label %139

122:                                              ; preds = %102
  %123 = getelementptr inbounds [5 x i8], ptr %7, i64 0, i64 0
  %124 = load i32, ptr %12, align 4, !tbaa !43
  %125 = load ptr, ptr %2, align 8, !tbaa !4
  %126 = getelementptr inbounds nuw %struct.AVFormatContext, ptr %125, i32 0, i32 7
  %127 = load ptr, ptr %126, align 8, !tbaa !44
  %128 = load i32, ptr %12, align 4, !tbaa !43
  %129 = sext i32 %128 to i64
  %130 = getelementptr inbounds ptr, ptr %127, i64 %129
  %131 = load ptr, ptr %130, align 8, !tbaa !31
  %132 = getelementptr inbounds nuw %struct.AVStream, ptr %131, i32 0, i32 3
  %133 = load ptr, ptr %132, align 8, !tbaa !56
  %134 = getelementptr inbounds nuw %struct.AVCodecParameters, ptr %133, i32 0, i32 0
  %135 = load i32, ptr %134, align 8, !tbaa !63
  %136 = call ptr @avi_stream2fourcc(ptr noundef %123, i32 noundef %124, i32 noundef %135)
  %137 = load ptr, ptr %3, align 8, !tbaa !29
  %138 = getelementptr inbounds [5 x i8], ptr %7, i64 0, i64 0
  call void @ffio_wfourcc(ptr noundef %137, ptr noundef %138)
  br label %139

139:                                              ; preds = %122, %117
  %140 = load ptr, ptr %3, align 8, !tbaa !29
  %141 = load ptr, ptr %9, align 8, !tbaa !137
  %142 = getelementptr inbounds nuw %struct.AVIIentry, ptr %141, i32 0, i32 1
  %143 = load i32, ptr %142, align 4, !tbaa !139
  call void @avio_wl32(ptr noundef %140, i32 noundef %143)
  %144 = load ptr, ptr %3, align 8, !tbaa !29
  %145 = load ptr, ptr %9, align 8, !tbaa !137
  %146 = getelementptr inbounds nuw %struct.AVIIentry, ptr %145, i32 0, i32 2
  %147 = load i32, ptr %146, align 4, !tbaa !141
  call void @avio_wl32(ptr noundef %144, i32 noundef %147)
  %148 = load ptr, ptr %3, align 8, !tbaa !29
  %149 = load ptr, ptr %9, align 8, !tbaa !137
  %150 = getelementptr inbounds nuw %struct.AVIIentry, ptr %149, i32 0, i32 3
  %151 = load i32, ptr %150, align 4, !tbaa !142
  call void @avio_wl32(ptr noundef %148, i32 noundef %151)
  %152 = load ptr, ptr %8, align 8, !tbaa !77
  %153 = getelementptr inbounds nuw %struct.AVIStream, ptr %152, i32 0, i32 3
  %154 = load i32, ptr %153, align 4, !tbaa !147
  %155 = add nsw i32 %154, 1
  store i32 %155, ptr %153, align 4, !tbaa !147
  br label %156

156:                                              ; preds = %139, %99
  br label %157

157:                                              ; preds = %156
  %158 = load i32, ptr %11, align 4, !tbaa !43
  %159 = icmp ne i32 %158, 0
  %160 = xor i1 %159, true
  br i1 %160, label %49, label %161, !llvm.loop !150

161:                                              ; preds = %157
  %162 = load ptr, ptr %3, align 8, !tbaa !29
  %163 = load i64, ptr %5, align 8, !tbaa !30
  call void @ff_end_tag(ptr noundef %162, i64 noundef %163)
  %164 = load ptr, ptr %2, align 8, !tbaa !4
  %165 = load ptr, ptr %4, align 8, !tbaa !26
  %166 = getelementptr inbounds nuw %struct.AVIContext, ptr %165, i32 0, i32 6
  %167 = load i32, ptr %166, align 8, !tbaa !54
  %168 = call i32 @avi_write_counters(ptr noundef %164, i32 noundef %167)
  call void @llvm.lifetime.end.p0(i64 4, ptr %12) #12
  call void @llvm.lifetime.end.p0(i64 4, ptr %11) #12
  call void @llvm.lifetime.end.p0(i64 8, ptr %10) #12
  call void @llvm.lifetime.end.p0(i64 8, ptr %9) #12
  call void @llvm.lifetime.end.p0(i64 8, ptr %8) #12
  br label %169

169:                                              ; preds = %161, %1
  call void @llvm.lifetime.end.p0(i64 5, ptr %7) #12
  call void @llvm.lifetime.end.p0(i64 4, ptr %6) #12
  call void @llvm.lifetime.end.p0(i64 8, ptr %5) #12
  call void @llvm.lifetime.end.p0(i64 8, ptr %4) #12
  call void @llvm.lifetime.end.p0(i64 8, ptr %3) #12
  ret i32 0
}