; Function Attrs: nounwind uwtable
define internal fastcc void @avi_write_idx1(ptr noundef readonly captures(none) %0) unnamed_addr #0 {
  %2 = getelementptr inbounds nuw i8, ptr %0, i64 32
  %3 = load ptr, ptr %2, align 8, !tbaa !24
  %4 = getelementptr inbounds nuw i8, ptr %0, i64 24
  %5 = load ptr, ptr %4, align 8, !tbaa !4
  %6 = getelementptr inbounds nuw i8, ptr %3, i64 144
  %7 = load i32, ptr %6, align 8, !tbaa !66
  %8 = and i32 %7, 1
  %.not = icmp eq i32 %8, 0
  br i1 %.not, label %105, label %9

9:                                                ; preds = %1
  %10 = tail call i64 @ff_start_tag(ptr noundef nonnull %3, ptr noundef nonnull @.str.49) #10
  %11 = getelementptr inbounds nuw i8, ptr %0, i64 44
  %12 = load i32, ptr %11, align 4, !tbaa !25
  %.not66 = icmp eq i32 %12, 0
  br i1 %.not66, label %.preheader, label %.lr.ph

.lr.ph:                                           ; preds = %9
  %13 = getelementptr inbounds nuw i8, ptr %0, i64 48
  %14 = load ptr, ptr %13, align 8, !tbaa !36
  %wide.trip.count = zext i32 %12 to i64
  br label %16

.preheader:                                       ; preds = %16, %9
  %15 = getelementptr inbounds nuw i8, ptr %0, i64 48
  %.not671 = icmp eq i32 %12, 0
  br i1 %.not671, label %.critedge, label %.lr.ph63

16:                                               ; preds = %.lr.ph, %16
  %indvars.iv = phi i64 [ 0, %.lr.ph ], [ %indvars.iv.next, %16 ]
  %17 = getelementptr inbounds nuw ptr, ptr %14, i64 %indvars.iv
  %18 = load ptr, ptr %17, align 8, !tbaa !37
  %19 = getelementptr inbounds nuw i8, ptr %18, i64 24
  %20 = load ptr, ptr %19, align 8, !tbaa !39
  %21 = getelementptr inbounds nuw i8, ptr %20, i64 20
  store i32 0, ptr %21, align 4, !tbaa !128
  %indvars.iv.next = add nuw nsw i64 %indvars.iv, 1
  %exitcond.not = icmp eq i64 %indvars.iv.next, %wide.trip.count
  br i1 %exitcond.not, label %.preheader, label %16, !llvm.loop !129

.lr.ph63:                                         ; preds = %.preheader, %93
  %.03 = phi i32 [ %.2, %93 ], [ -1, %.preheader ]
  %.0492 = phi ptr [ %.251, %93 ], [ null, %.preheader ]
  %22 = phi i32 [ %.pre, %93 ], [ %12, %.preheader ]
  %23 = load ptr, ptr %15, align 8, !tbaa !36
  %wide.trip.count72 = zext i32 %22 to i64
  br label %24

24:                                               ; preds = %.lr.ph63, %50
  %indvars.iv69 = phi i64 [ 0, %.lr.ph63 ], [ %indvars.iv.next70, %50 ]
  %.162 = phi i32 [ %.03, %.lr.ph63 ], [ %.2, %50 ]
  %.04561 = phi i32 [ 1, %.lr.ph63 ], [ %.146, %50 ]
  %.15059 = phi ptr [ %.0492, %.lr.ph63 ], [ %.251, %50 ]
  %25 = getelementptr inbounds nuw ptr, ptr %23, i64 %indvars.iv69
  %26 = load ptr, ptr %25, align 8, !tbaa !37
  %27 = getelementptr inbounds nuw i8, ptr %26, i64 24
  %28 = load ptr, ptr %27, align 8, !tbaa !39
  %29 = getelementptr inbounds nuw i8, ptr %28, i64 56
  %30 = load i32, ptr %29, align 8, !tbaa !51
  %31 = getelementptr inbounds nuw i8, ptr %28, i64 20
  %32 = load i32, ptr %31, align 4, !tbaa !128
  %.not56 = icmp sgt i32 %30, %32
  br i1 %.not56, label %33, label %50

33:                                               ; preds = %24
  %34 = getelementptr i8, ptr %28, i64 72
  %.val = load ptr, ptr %34, align 8, !tbaa !117
  %35 = sdiv i32 %32, 16384
  %36 = srem i32 %32, 16384
  %37 = sext i32 %35 to i64
  %38 = getelementptr inbounds ptr, ptr %.val, i64 %37
  %39 = load ptr, ptr %38, align 8, !tbaa !118
  %40 = sext i32 %36 to i64
  %41 = getelementptr inbounds %struct.AVIIentry, ptr %39, i64 %40
  %.not57 = icmp eq i32 %.04561, 0
  br i1 %.not57, label %42, label %48

42:                                               ; preds = %33
  %43 = getelementptr inbounds nuw i8, ptr %41, i64 8
  %44 = load i32, ptr %43, align 4, !tbaa !122
  %45 = getelementptr inbounds nuw i8, ptr %.15059, i64 8
  %46 = load i32, ptr %45, align 4, !tbaa !122
  %47 = icmp ult i32 %44, %46
  br i1 %47, label %48, label %50

48:                                               ; preds = %42, %33
  %49 = trunc nuw nsw i64 %indvars.iv69 to i32
  br label %50

50:                                               ; preds = %42, %48, %24
  %.251 = phi ptr [ %.15059, %24 ], [ %41, %48 ], [ %.15059, %42 ]
  %.146 = phi i32 [ %.04561, %24 ], [ 0, %48 ], [ 0, %42 ]
  %.2 = phi i32 [ %.162, %24 ], [ %49, %48 ], [ %.162, %42 ]
  %indvars.iv.next70 = add nuw nsw i64 %indvars.iv69, 1
  %exitcond73.not = icmp eq i64 %indvars.iv.next70, %wide.trip.count72
  br i1 %exitcond73.not, label %._crit_edge, label %24, !llvm.loop !130

._crit_edge:                                      ; preds = %50
  %51 = icmp eq i32 %.146, 0
  br i1 %51, label %52, label %.critedge

52:                                               ; preds = %._crit_edge
  %53 = load ptr, ptr %15, align 8, !tbaa !36
  %54 = sext i32 %.2 to i64
  %55 = getelementptr inbounds ptr, ptr %53, i64 %54
  %56 = load ptr, ptr %55, align 8, !tbaa !37
  %57 = getelementptr inbounds nuw i8, ptr %56, i64 24
  %58 = load ptr, ptr %57, align 8, !tbaa !39
  %59 = load i8, ptr %.251, align 4, !tbaa !100
  %.not55 = icmp eq i8 %59, 0
  br i1 %.not55, label %77, label %60

60:                                               ; preds = %52
  %61 = zext i8 %59 to i32
  %62 = getelementptr inbounds nuw i8, ptr %.251, i64 1
  %63 = load i8, ptr %62, align 1, !tbaa !100
  %64 = zext i8 %63 to i32
  %65 = shl nuw nsw i32 %64, 8
  %66 = or disjoint i32 %65, %61
  %67 = getelementptr inbounds nuw i8, ptr %.251, i64 2
  %68 = load i8, ptr %67, align 1, !tbaa !100
  %69 = zext i8 %68 to i32
  %70 = shl nuw nsw i32 %69, 16
  %71 = or disjoint i32 %66, %70
  %72 = getelementptr inbounds nuw i8, ptr %.251, i64 3
  %73 = load i8, ptr %72, align 1, !tbaa !100
  %74 = zext i8 %73 to i32
  %75 = shl nuw i32 %74, 24
  %76 = or disjoint i32 %71, %75
  br label %93

77:                                               ; preds = %52
  %78 = getelementptr inbounds nuw i8, ptr %56, i64 16
  %79 = load ptr, ptr %78, align 8, !tbaa !54
  %80 = load i32, ptr %79, align 8, !tbaa !59
  %81 = sdiv i32 %.2, 10
  %82 = add nsw i32 %81, 48
  %83 = srem i32 %.2, 10
  switch i32 %80, label %85 [
    i32 0, label %avi_stream2fourcc.exit
    i32 3, label %84
  ]

84:                                               ; preds = %77
  br label %avi_stream2fourcc.exit

85:                                               ; preds = %77
  br label %avi_stream2fourcc.exit

avi_stream2fourcc.exit:                           ; preds = %77, %84, %85
  %.sink13.i = phi i32 [ 7536640, %84 ], [ 7798784, %85 ], [ 6553600, %77 ]
  %.sink.i = phi i32 [ 1644167168, %84 ], [ 1644167168, %85 ], [ 1660944384, %77 ]
  %86 = and i32 %82, 255
  %87 = shl nsw i32 %83, 8
  %88 = add nsw i32 %87, 12288
  %89 = and i32 %88, 65280
  %90 = or disjoint i32 %89, %86
  %91 = or disjoint i32 %90, %.sink13.i
  %92 = or disjoint i32 %91, %.sink.i
  br label %93

93:                                               ; preds = %avi_stream2fourcc.exit, %60
  %.sink = phi i32 [ %92, %avi_stream2fourcc.exit ], [ %76, %60 ]
  tail call void @avio_wl32(ptr noundef nonnull %3, i32 noundef %.sink) #10
  %94 = getelementptr inbounds nuw i8, ptr %.251, i64 4
  %95 = load i32, ptr %94, align 4, !tbaa !120
  tail call void @avio_wl32(ptr noundef nonnull %3, i32 noundef %95) #10
  %96 = getelementptr inbounds nuw i8, ptr %.251, i64 8
  %97 = load i32, ptr %96, align 4, !tbaa !122
  tail call void @avio_wl32(ptr noundef nonnull %3, i32 noundef %97) #10
  %98 = getelementptr inbounds nuw i8, ptr %.251, i64 12
  %99 = load i32, ptr %98, align 4, !tbaa !123
  tail call void @avio_wl32(ptr noundef nonnull %3, i32 noundef %99) #10
  %100 = getelementptr inbounds nuw i8, ptr %58, i64 20
  %101 = load i32, ptr %100, align 4, !tbaa !128
  %102 = add nsw i32 %101, 1
  store i32 %102, ptr %100, align 4, !tbaa !128
  %.pre = load i32, ptr %11, align 4, !tbaa !25
  %.not67 = icmp eq i32 %.pre, 0
  br i1 %.not67, label %.critedge, label %.lr.ph63, !llvm.loop !131

.critedge:                                        ; preds = %._crit_edge, %93, %.preheader
  tail call void @ff_end_tag(ptr noundef nonnull %3, i64 noundef %10) #10
  %103 = getelementptr inbounds nuw i8, ptr %5, i64 48
  %104 = load i32, ptr %103, align 8, !tbaa !33
  tail call fastcc void @avi_write_counters(ptr noundef nonnull %0, i32 noundef %104)
  br label %105

105:                                              ; preds = %.critedge, %1
  ret void
}